target datalayout = "e-m:e-p270:32:32-p271:32:32-p272:64:64-i64:64-i128:128-f80:128-n8:16:32:64-S128"
target triple = "x86_64-pc-linux-gnu"

%struct.conn = type { i32, ptr, ptr }

@.str.62 = private unnamed_addr constant [10 x i8] c"testapp.c\00", align 1
@stderr = external global ptr, align 8
@con = internal global ptr null, align 8
@.str.239 = private unnamed_addr constant [20 x i8] c"Failed to read: %s\0A\00", align 1
@allow_closed_read = internal global i8 0, align 1
@.str.250 = private unnamed_addr constant [8 x i8] c"nr != 0\00", align 1
@__PRETTY_FUNCTION__.safe_recv = private unnamed_addr constant [32 x i8] c"_Bool safe_recv(void *, size_t)\00", align 1

; Function Attrs: nounwind uwtable
define internal zeroext i1 @safe_recv(ptr noundef %0, i64 noundef %1) #0 {
  %3 = alloca i1, align 1
  %4 = alloca ptr, align 8
  %5 = alloca i64, align 8
  %6 = alloca i64, align 8
  %7 = alloca i64, align 8
  %8 = alloca i32, align 4
  store ptr %0, ptr %4, align 8, !tbaa !4
  store i64 %1, ptr %5, align 8, !tbaa !36
  %9 = load i64, ptr %5, align 8, !tbaa !36
  %10 = icmp eq i64 %9, 0
  br i1 %10, label %11, label %12

11:                                               ; preds = %2
  store i1 true, ptr %3, align 1
  br label %64

12:                                               ; preds = %2
  call void @llvm.lifetime.start.p0(i64 8, ptr %6) #12
  store i64 0, ptr %6, align 8, !tbaa !36
  br label %13

13:                                               ; preds = %58, %12
  call void @llvm.lifetime.start.p0(i64 8, ptr %7) #12
  %14 = load ptr, ptr @con, align 8, !tbaa !39
  %15 = getelementptr inbounds nuw %struct.conn, ptr %14, i32 0, i32 1
  %16 = load ptr, ptr %15, align 8, !tbaa !52
  %17 = load ptr, ptr @con, align 8, !tbaa !39
  %18 = load ptr, ptr %4, align 8, !tbaa !4
  %19 = load i64, ptr %6, align 8, !tbaa !36
  %20 = getelementptr inbounds i8, ptr %18, i64 %19
  %21 = load i64, ptr %5, align 8, !tbaa !36
  %22 = load i64, ptr %6, align 8, !tbaa !36
  %23 = sub i64 %21, %22
  %24 = call i64 %16(ptr noundef %17, ptr noundef %20, i64 noundef %23)
  store i64 %24, ptr %7, align 8, !tbaa !36
  %25 = load i64, ptr %7, align 8, !tbaa !36
  %26 = icmp eq i64 %25, -1
  br i1 %26, label %27, label %38

27:                                               ; preds = %13
  %28 = call ptr @__errno_location() #16
  %29 = load i32, ptr %28, align 4, !tbaa !10
  %30 = icmp ne i32 %29, 4
  br i1 %30, label %31, label %37

31:                                               ; preds = %27
  %32 = load ptr, ptr @stderr, align 8, !tbaa !37
  %33 = call ptr @__errno_location() #16
  %34 = load i32, ptr %33, align 4, !tbaa !10
  %35 = call ptr @strerror(i32 noundef %34) #12
  %36 = call i32 (ptr, ptr, ...) @fprintf(ptr noundef %32, ptr noundef @.str.239, ptr noundef %35) #12
  call void @abort() #13
  unreachable

37:                                               ; preds = %27
  br label %54

38:                                               ; preds = %13
  %39 = load i64, ptr %7, align 8, !tbaa !36
  %40 = icmp eq i64 %39, 0
  br i1 %40, label %41, label %45

41:                                               ; preds = %38
  %42 = load i8, ptr @allow_closed_read, align 1, !tbaa !31, !range !34, !noundef !35
  %43 = trunc i8 %42 to i1
  br i1 %43, label %44, label %45

44:                                               ; preds = %41
  store i1 false, ptr %3, align 1
  store i32 1, ptr %8, align 4
  br label %55

45:                                               ; preds = %41, %38
  %46 = load i64, ptr %7, align 8, !tbaa !36
  %47 = icmp ne i64 %46, 0
  br i1 %47, label %48, label %49

48:                                               ; preds = %45
  br label %50

49:                                               ; preds = %45
  call void @__assert_fail(ptr noundef @.str.250, ptr noundef @.str.62, i32 noundef 1029, ptr noundef @__PRETTY_FUNCTION__.safe_recv) #13
  unreachable

50:                                               ; preds = %48
  %51 = load i64, ptr %7, align 8, !tbaa !36
  %52 = load i64, ptr %6, align 8, !tbaa !36
  %53 = add nsw i64 %52, %51
  store i64 %53, ptr %6, align 8, !tbaa !36
  br label %54

54:                                               ; preds = %50, %37
  store i32 0, ptr %8, align 4
  br label %55

55:                                               ; preds = %54, %44
  call void @llvm.lifetime.end.p0(i64 8, ptr %7) #12
  %56 = load i32, ptr %8, align 4
  switch i32 %56, label %63 [
    i32 0, label %57
  ]

57:                                               ; preds = %55
  br label %58

58:                                               ; preds = %57
  %59 = load i64, ptr %6, align 8, !tbaa !36
  %60 = load i64, ptr %5, align 8, !tbaa !36
  %61 = icmp ult i64 %59, %60
  br i1 %61, label %13, label %62, !llvm.loop !82

62:                                               ; preds = %58
  store i1 true, ptr %3, align 1
  store i32 1, ptr %8, align 4
  br label %63

63:                                               ; preds = %62, %55
  call void @llvm.lifetime.end.p0(i64 8, ptr %6) #12
  br label %64

64:                                               ; preds = %63, %11
  %65 = load i1, ptr %3, align 1
  ret i1 %65
}