; Function Attrs: nounwind uwtable
define internal fastcc noundef zeroext i1 @safe_recv(ptr noundef nonnull %0, i64 noundef range(i64 0, 4294967296) %1) unnamed_addr #0 {
  %3 = icmp eq i64 %1, 0
  br i1 %3, label %.thread, label %.preheader

.preheader:                                       ; preds = %2, %21
  %.014 = phi i64 [ %.216, %21 ], [ 0, %2 ]
  %4 = load ptr, ptr @con, align 8, !tbaa !35
  %5 = getelementptr inbounds nuw i8, ptr %4, i64 8
  %6 = load ptr, ptr %5, align 8, !tbaa !47
  %7 = getelementptr inbounds nuw i8, ptr %0, i64 %.014
  %8 = sub nsw i64 %1, %.014
  %9 = tail call i64 %6(ptr noundef %4, ptr noundef nonnull %7, i64 noundef %8) #21
  switch i64 %9, label %19 [
    i64 -1, label %10
    i64 0, label %17
  ]

10:                                               ; preds = %.preheader
  %11 = tail call ptr @__errno_location() #25
  %12 = load i32, ptr %11, align 4, !tbaa !9
  %.not21 = icmp eq i32 %12, 4
  br i1 %.not21, label %21, label %13

13:                                               ; preds = %10
  %14 = load ptr, ptr @stderr, align 8, !tbaa !44
  %15 = tail call ptr @strerror(i32 noundef %12) #21
  %16 = tail call i32 (ptr, ptr, ...) @fprintf(ptr noundef %14, ptr noundef nonnull @.str.239, ptr noundef %15) #26
  tail call void @abort() #22
  unreachable

17:                                               ; preds = %.preheader
  %.b20 = load i1, ptr @allow_closed_read, align 1
  br i1 %.b20, label %.thread, label %18

18:                                               ; preds = %17
  tail call void @__assert_fail(ptr noundef nonnull @.str.250, ptr noundef nonnull @.str.62, i32 noundef 1029, ptr noundef nonnull @__PRETTY_FUNCTION__.safe_recv) #22
  unreachable

19:                                               ; preds = %.preheader
  %20 = add nsw i64 %9, %.014
  br label %21

21:                                               ; preds = %19, %10
  %.216 = phi i64 [ %.014, %10 ], [ %20, %19 ]
  %22 = icmp ult i64 %.216, %1
  br i1 %22, label %.preheader, label %.thread, !llvm.loop !76

.thread:                                          ; preds = %21, %17, %2
  %.013 = phi i1 [ true, %2 ], [ false, %17 ], [ true, %21 ]
  ret i1 %.013
}